; Function Attrs: mustprogress uwtable
define void @_ZN8WasmEdge8Executor8Executor24registerPostHostFunctionEPvSt8functionIFvS2_EE(ptr dead_on_unwind noalias nocapture writable writeonly sret(%"class.cxx20::expected.165") align 4 %0, ptr noundef nonnull align 8 dereferenceable(408) %1, ptr noundef %2, ptr noundef %3) local_unnamed_addr #0 align 2 personality ptr @__gxx_personality_v0 {
  %5 = alloca %"class.std::function", align 8
  %6 = getelementptr inbounds i8, ptr %1, i64 272
  %7 = getelementptr inbounds i8, ptr %5, i64 16
  %8 = getelementptr inbounds i8, ptr %3, i64 16
  call void @llvm.memset.p0.i64(ptr noundef nonnull align 8 dereferenceable(32) %5, i8 0, i64 32, i1 false)
  %9 = load ptr, ptr %8, align 8
  %.not.i.i.not.i = icmp eq ptr %9, null
  br i1 %.not.i.i.not.i, label %_ZNSt8functionIFvPvEEC2ERKS2_.exit, label %10

10:                                               ; preds = %4
  %11 = invoke noundef zeroext i1 %9(ptr noundef nonnull align 8 dereferenceable(16) %5, ptr noundef nonnull align 8 dereferenceable(16) %3, i32 noundef 2)
          to label %12 unwind label %14

12:                                               ; preds = %10
  %13 = load <2 x ptr>, ptr %8, align 8
  store <2 x ptr> %13, ptr %7, align 8
  br label %_ZNSt8functionIFvPvEEC2ERKS2_.exit

14:                                               ; preds = %10
  %15 = landingpad { ptr, i32 }
          cleanup
  %16 = load ptr, ptr %7, align 8
  %.not.i.i = icmp eq ptr %16, null
  br i1 %.not.i.i, label %common.resume, label %17

17:                                               ; preds = %14
  %18 = invoke noundef zeroext i1 %16(ptr noundef nonnull align 8 dereferenceable(16) %5, ptr noundef nonnull align 8 dereferenceable(16) %5, i32 noundef 3)
          to label %common.resume unwind label %19

19:                                               ; preds = %17
  %20 = landingpad { ptr, i32 }
          catch ptr null
  %21 = extractvalue { ptr, i32 } %20, 0
  call void @__clang_call_terminate(ptr %21) #21
  unreachable

common.resume:                                    ; preds = %32, %29, %14, %17
  %common.resume.op = phi { ptr, i32 } [ %15, %17 ], [ %15, %14 ], [ %30, %29 ], [ %30, %32 ]
  resume { ptr, i32 } %common.resume.op

_ZNSt8functionIFvPvEEC2ERKS2_.exit:               ; preds = %4, %12
  invoke void @_ZN8WasmEdge8Executor15HostFuncHandler11setPostHostEPvSt8functionIFvS2_EE(ptr noundef nonnull align 8 dereferenceable(136) %6, ptr noundef %2, ptr noundef nonnull %5)
          to label %22 unwind label %29

22:                                               ; preds = %_ZNSt8functionIFvPvEEC2ERKS2_.exit
  %23 = load ptr, ptr %7, align 8
  %.not.i.i3 = icmp eq ptr %23, null
  br i1 %.not.i.i3, label %_ZNSt8functionIFvPvEED2Ev.exit, label %24

24:                                               ; preds = %22
  %25 = invoke noundef zeroext i1 %23(ptr noundef nonnull align 8 dereferenceable(16) %5, ptr noundef nonnull align 8 dereferenceable(16) %5, i32 noundef 3)
          to label %_ZNSt8functionIFvPvEED2Ev.exit unwind label %26

26:                                               ; preds = %24
  %27 = landingpad { ptr, i32 }
          catch ptr null
  %28 = extractvalue { ptr, i32 } %27, 0
  call void @__clang_call_terminate(ptr %28) #21
  unreachable

_ZNSt8functionIFvPvEED2Ev.exit:                   ; preds = %22, %24
  store i64 1, ptr %0, align 4
  ret void

29:                                               ; preds = %_ZNSt8functionIFvPvEEC2ERKS2_.exit
  %30 = landingpad { ptr, i32 }
          cleanup
  %31 = load ptr, ptr %7, align 8
  %.not.i.i5 = icmp eq ptr %31, null
  br i1 %.not.i.i5, label %common.resume, label %32

32:                                               ; preds = %29
  %33 = invoke noundef zeroext i1 %31(ptr noundef nonnull align 8 dereferenceable(16) %5, ptr noundef nonnull align 8 dereferenceable(16) %5, i32 noundef 3)
          to label %common.resume unwind label %34

34:                                               ; preds = %32
  %35 = landingpad { ptr, i32 }
          catch ptr null
  %36 = extractvalue { ptr, i32 } %35, 0
  call void @__clang_call_terminate(ptr %36) #21
  unreachable
}